; Function Attrs: mustprogress uwtable
define internal void @_ZN7rocksdb12_GLOBAL__N_121TwoLevelIndexIterator4NextEv(ptr noundef nonnull align 8 dereferenceable(160) %this) unnamed_addr #0 align 2 {
entry:
  %second_level_iter_ = getelementptr inbounds i8, ptr %this, i64 88
  %0 = load ptr, ptr %second_level_iter_, align 8
  %result_.i = getelementptr inbounds i8, ptr %this, i64 96
  %vtable.i = load ptr, ptr %0, align 8
  %vfn.i = getelementptr inbounds i8, ptr %vtable.i, i64 72
  %1 = load ptr, ptr %vfn.i, align 8
  %call.i = tail call noundef zeroext i1 %1(ptr noundef nonnull align 8 dereferenceable(40) %0, ptr noundef nonnull %result_.i)
  %valid_.i = getelementptr inbounds i8, ptr %this, i64 120
  %frombool.i = zext i1 %call.i to i8
  store i8 %frombool.i, ptr %valid_.i, align 8
  tail call fastcc void @_ZN7rocksdb12_GLOBAL__N_121TwoLevelIndexIterator26SkipEmptyDataBlocksForwardEv(ptr noundef nonnull align 8 dereferenceable(160) %this)
  ret void
}